; Function Attrs: mustprogress uwtable
define noundef i32 @_Z16gmx_fio_fp_closeP8t_fileio(ptr noundef %0) local_unnamed_addr #0 {
  %2 = getelementptr inbounds nuw i8, ptr %0, i64 88
  tail call void @_Z14tMPI_Lock_lockP9tMPI_Lock(ptr noundef nonnull %2)
  %3 = getelementptr inbounds nuw i8, ptr %0, i64 56
  %4 = load ptr, ptr %3, align 8, !tbaa !33
  %5 = icmp eq ptr %4, null
  br i1 %5, label %6, label %9

6:                                                ; preds = %1
  %7 = load ptr, ptr %0, align 8, !tbaa !14
  %8 = tail call noundef i32 @_Z11gmx_ffcloseP8_IO_FILE(ptr noundef %7)
  store ptr null, ptr %0, align 8, !tbaa !14
  br label %9

9:                                                ; preds = %6, %1
  %.0 = phi i32 [ %8, %6 ], [ 0, %1 ]
  tail call void @_Z16tMPI_Lock_unlockP9tMPI_Lock(ptr noundef nonnull %2)
  ret i32 %.0
}